; Function Attrs: mustprogress uwtable
define noundef zeroext i1 @_ZN32pxrInternal_v0_24__pxrReserved__14UsdGeomPrimvar9IsPrimvarERKNS_12UsdAttributeE(ptr noundef nonnull align 8 dereferenceable(32) %0) local_unnamed_addr #1 align 2 {
  %2 = load i32, ptr %0, align 8
  switch i32 %2, label %_ZNK32pxrInternal_v0_24__pxrReserved__9UsdObjectcvbEv.exit.thread [
    i32 4, label %3
    i32 3, label %3
    i32 1, label %3
  ]

3:                                                ; preds = %1, %1, %1
  %4 = getelementptr inbounds nuw i8, ptr %0, i64 8
  %5 = load ptr, ptr %4, align 8
  %.not.i.i.i = icmp eq ptr %5, null
  br i1 %.not.i.i.i, label %_ZNK32pxrInternal_v0_24__pxrReserved__9UsdObjectcvbEv.exit.thread, label %_ZNK32pxrInternal_v0_24__pxrReserved__18Usd_PrimDataHandlecvbEv.exit.i.i

_ZNK32pxrInternal_v0_24__pxrReserved__18Usd_PrimDataHandlecvbEv.exit.i.i: ; preds = %3
  %6 = getelementptr inbounds nuw i8, ptr %5, i64 56
  %7 = load i64, ptr %6, align 8
  %8 = and i64 %7, 2048
  %.not3.i.i.i = icmp eq i64 %8, 0
  br i1 %.not3.i.i.i, label %9, label %_ZNK32pxrInternal_v0_24__pxrReserved__9UsdObjectcvbEv.exit.thread

9:                                                ; preds = %_ZNK32pxrInternal_v0_24__pxrReserved__18Usd_PrimDataHandlecvbEv.exit.i.i
  %10 = icmp eq i32 %2, 1
  br i1 %10, label %19, label %11

11:                                               ; preds = %9
  %12 = tail call noundef i32 @_ZNK32pxrInternal_v0_24__pxrReserved__9UsdObject20_GetDefiningSpecTypeEv(ptr noundef nonnull align 8 dereferenceable(32) %0)
  %13 = load i32, ptr %0, align 8
  %14 = icmp eq i32 %13, 3
  %15 = icmp eq i32 %12, 1
  %or.cond.i.i = and i1 %15, %14
  br i1 %or.cond.i.i, label %_ZNK32pxrInternal_v0_24__pxrReserved__9UsdObjectcvbEv.exit.thread7.thread, label %_ZNK32pxrInternal_v0_24__pxrReserved__9UsdObjectcvbEv.exit

_ZNK32pxrInternal_v0_24__pxrReserved__9UsdObjectcvbEv.exit: ; preds = %11
  %16 = icmp eq i32 %13, 4
  %17 = icmp eq i32 %12, 8
  %18 = and i1 %17, %16
  br i1 %18, label %_ZNK32pxrInternal_v0_24__pxrReserved__9UsdObjectcvbEv.exit.thread7.thread, label %_ZNK32pxrInternal_v0_24__pxrReserved__9UsdObjectcvbEv.exit.thread

19:                                               ; preds = %9
  %20 = getelementptr inbounds nuw i8, ptr %0, i64 16
  %21 = load i32, ptr %20, align 8
  %.not.i.i.i3 = icmp eq i32 %21, 0
  br i1 %.not.i.i.i3, label %22, label %_ZNK32pxrInternal_v0_24__pxrReserved__9UsdObject11GetPrimPathEv.exit.i

22:                                               ; preds = %19
  %23 = load ptr, ptr %4, align 8
  %.not.i.i = icmp eq ptr %23, null
  br i1 %.not.i.i, label %26, label %24

24:                                               ; preds = %22
  %25 = getelementptr inbounds nuw i8, ptr %23, i64 16
  br label %_ZNK32pxrInternal_v0_24__pxrReserved__9UsdObject11GetPrimPathEv.exit.i

26:                                               ; preds = %22
  %27 = tail call noundef nonnull align 4 dereferenceable(8) ptr @_ZN32pxrInternal_v0_24__pxrReserved__7SdfPath9EmptyPathEv()
  br label %_ZNK32pxrInternal_v0_24__pxrReserved__9UsdObject11GetPrimPathEv.exit.i

_ZNK32pxrInternal_v0_24__pxrReserved__9UsdObject11GetPrimPathEv.exit.i: ; preds = %26, %24, %19
  %.0.i.i4 = phi ptr [ %25, %24 ], [ %27, %26 ], [ %20, %19 ]
  %28 = tail call noundef nonnull align 8 dereferenceable(8) ptr @_ZNK32pxrInternal_v0_24__pxrReserved__7SdfPath12GetNameTokenEv(ptr noundef nonnull align 4 dereferenceable(8) %.0.i.i4)
  br label %_ZNK32pxrInternal_v0_24__pxrReserved__9UsdObject7GetNameEv.exit

_ZNK32pxrInternal_v0_24__pxrReserved__9UsdObjectcvbEv.exit.thread7.thread: ; preds = %_ZNK32pxrInternal_v0_24__pxrReserved__9UsdObjectcvbEv.exit, %11
  %29 = getelementptr inbounds nuw i8, ptr %0, i64 24
  br label %_ZNK32pxrInternal_v0_24__pxrReserved__9UsdObject7GetNameEv.exit

_ZNK32pxrInternal_v0_24__pxrReserved__9UsdObject7GetNameEv.exit: ; preds = %_ZNK32pxrInternal_v0_24__pxrReserved__9UsdObject11GetPrimPathEv.exit.i, %_ZNK32pxrInternal_v0_24__pxrReserved__9UsdObjectcvbEv.exit.thread7.thread
  %30 = phi ptr [ %28, %_ZNK32pxrInternal_v0_24__pxrReserved__9UsdObject11GetPrimPathEv.exit.i ], [ %29, %_ZNK32pxrInternal_v0_24__pxrReserved__9UsdObjectcvbEv.exit.thread7.thread ]
  %31 = tail call noundef zeroext i1 @_ZN32pxrInternal_v0_24__pxrReserved__14UsdGeomPrimvar18IsValidPrimvarNameERKNS_7TfTokenE(ptr noundef nonnull align 8 dereferenceable(8) %30)
  br label %_ZNK32pxrInternal_v0_24__pxrReserved__9UsdObjectcvbEv.exit.thread

_ZNK32pxrInternal_v0_24__pxrReserved__9UsdObjectcvbEv.exit.thread: ; preds = %3, %1, %_ZNK32pxrInternal_v0_24__pxrReserved__18Usd_PrimDataHandlecvbEv.exit.i.i, %_ZNK32pxrInternal_v0_24__pxrReserved__9UsdObjectcvbEv.exit, %_ZNK32pxrInternal_v0_24__pxrReserved__9UsdObject7GetNameEv.exit
  %.0 = phi i1 [ %31, %_ZNK32pxrInternal_v0_24__pxrReserved__9UsdObject7GetNameEv.exit ], [ false, %_ZNK32pxrInternal_v0_24__pxrReserved__9UsdObjectcvbEv.exit ], [ false, %_ZNK32pxrInternal_v0_24__pxrReserved__18Usd_PrimDataHandlecvbEv.exit.i.i ], [ false, %1 ], [ false, %3 ]
  ret i1 %.0
}